; Function Attrs: nounwind uwtable
define hidden zeroext i1 @SDL_HapticRumbleSupported_REAL(ptr noundef %0) local_unnamed_addr #0 {
  %2 = tail call zeroext i1 @SDL_ObjectValid(ptr noundef %0, i32 noundef 6) #9
  br i1 %2, label %5, label %3

3:                                                ; preds = %1
  %4 = tail call zeroext i1 (ptr, ...) @SDL_SetError_REAL(ptr noundef nonnull @.str, ptr noundef nonnull @.str.1) #9
  br label %10

5:                                                ; preds = %1
  %6 = getelementptr inbounds nuw i8, ptr %0, i64 32
  %7 = load i32, ptr %6, align 8
  %8 = and i32 %7, 2050
  %9 = icmp ne i32 %8, 0
  br label %10

10:                                               ; preds = %5, %3
  %.0 = phi i1 [ %9, %5 ], [ false, %3 ]
  ret i1 %.0
}